target datalayout = "e-m:e-p270:32:32-p271:32:32-p272:64:64-i64:64-i128:128-f80:128-n8:16:32:64-S128"
target triple = "x86_64-pc-linux-gnu"

%struct._psqlSettings = type { ptr, i32, ptr, i8, ptr, ptr, %struct.printQueryOpt, ptr, ptr, ptr, i8, i8, i32, i32, ptr, ptr, i8, [4 x ptr], i8, i32, ptr, i8, i32, ptr, ptr, i64, i64, i8, ptr, ptr, ptr, i8, i8, i8, i8, i8, i8, i8, i32, i32, i32, i32, i32, i32, i32, i32, ptr, ptr, ptr, i32, i8, i32 }
%struct.printQueryOpt = type { %struct.printTableOpt, ptr, ptr, ptr, i8, ptr, i32 }
%struct.printTableOpt = type { i32, i16, i32, i32, i16, i16, i32, i8, i8, i8, i8, i64, ptr, %struct.separator, %struct.separator, [2 x i8], i8, ptr, i32, i32, i32, i32, i32, i32 }
%struct.separator = type { ptr, i8 }
%struct.PQExpBufferData = type { ptr, i64, i64 }

@pset = external global %struct._psqlSettings, align 8
@.str.217 = private unnamed_addr constant [8 x i8] c"SELECT \00", align 1
@.str.218 = private unnamed_addr constant [32 x i8] c"::pg_catalog.%s::pg_catalog.oid\00", align 1
@.str.219 = private unnamed_addr constant [13 x i8] c"regprocedure\00", align 1
@.str.220 = private unnamed_addr constant [8 x i8] c"regproc\00", align 1
@.str.221 = private unnamed_addr constant [38 x i8] c"::pg_catalog.regclass::pg_catalog.oid\00", align 1
@.str.222 = private unnamed_addr constant [59 x i8] c"/******** QUERY *********/\0A%s\0A/************************/\0A\0A\00", align 1
@stdout = external global ptr, align 8

; Function Attrs: nounwind uwtable
define internal zeroext i1 @echo_hidden_command(ptr noundef %0) #0 {
  %2 = alloca i1, align 1
  %3 = alloca ptr, align 8
  store ptr %0, ptr %3, align 8
  %4 = load i32, ptr getelementptr inbounds nuw (%struct._psqlSettings, ptr @pset, i32 0, i32 42), align 8
  %5 = icmp ne i32 %4, 0
  br i1 %5, label %6, label %24

6:                                                ; preds = %1
  %7 = load ptr, ptr %3, align 8
  %8 = call i32 (ptr, ...) @pg_printf(ptr noundef @.str.222, ptr noundef %7)
  %9 = load ptr, ptr @stdout, align 8
  %10 = call i32 @fflush(ptr noundef %9)
  %11 = load ptr, ptr getelementptr inbounds nuw (%struct._psqlSettings, ptr @pset, i32 0, i32 28), align 8
  %12 = icmp ne ptr %11, null
  br i1 %12, label %13, label %19

13:                                               ; preds = %6
  %14 = load ptr, ptr getelementptr inbounds nuw (%struct._psqlSettings, ptr @pset, i32 0, i32 28), align 8
  %15 = load ptr, ptr %3, align 8
  %16 = call i32 (ptr, ptr, ...) @pg_fprintf(ptr noundef %14, ptr noundef @.str.222, ptr noundef %15)
  %17 = load ptr, ptr getelementptr inbounds nuw (%struct._psqlSettings, ptr @pset, i32 0, i32 28), align 8
  %18 = call i32 @fflush(ptr noundef %17)
  br label %19

19:                                               ; preds = %13, %6
  %20 = load i32, ptr getelementptr inbounds nuw (%struct._psqlSettings, ptr @pset, i32 0, i32 42), align 8
  %21 = icmp eq i32 %20, 2
  br i1 %21, label %22, label %23

22:                                               ; preds = %19
  store i1 false, ptr %2, align 1
  br label %25

23:                                               ; preds = %19
  br label %24

24:                                               ; preds = %23, %1
  store i1 true, ptr %2, align 1
  br label %25

25:                                               ; preds = %24, %22
  %26 = load i1, ptr %2, align 1
  ret i1 %26
}

; Function Attrs: nounwind uwtable
define internal zeroext i1 @lookup_object_oid(i32 noundef %0, ptr noundef %1, ptr noundef %2) #0 {
  %4 = alloca i1, align 1
  %5 = alloca i32, align 4
  %6 = alloca ptr, align 8
  %7 = alloca ptr, align 8
  %8 = alloca i8, align 1
  %9 = alloca ptr, align 8
  %10 = alloca ptr, align 8
  %11 = alloca i32, align 4
  store i32 %0, ptr %5, align 4
  store ptr %1, ptr %6, align 8
  store ptr %2, ptr %7, align 8
  call void @llvm.lifetime.start.p0(i64 1, ptr %8) #10
  store i8 1, ptr %8, align 1
  call void @llvm.lifetime.start.p0(i64 8, ptr %9) #10
  %12 = call ptr @createPQExpBuffer()
  store ptr %12, ptr %9, align 8
  call void @llvm.lifetime.start.p0(i64 8, ptr %10) #10
  %13 = load i32, ptr %5, align 4
  switch i32 %13, label %30 [
    i32 0, label %14
    i32 1, label %24
  ]

14:                                               ; preds = %3
  %15 = load ptr, ptr %9, align 8
  call void @appendPQExpBufferStr(ptr noundef %15, ptr noundef @.str.217)
  %16 = load ptr, ptr %9, align 8
  %17 = load ptr, ptr %6, align 8
  %18 = load ptr, ptr @pset, align 8
  call void @appendStringLiteralConn(ptr noundef %16, ptr noundef %17, ptr noundef %18)
  %19 = load ptr, ptr %9, align 8
  %20 = load ptr, ptr %6, align 8
  %21 = call ptr @strchr(ptr noundef %20, i32 noundef 40) #11
  %22 = icmp ne ptr %21, null
  %23 = select i1 %22, ptr @.str.219, ptr @.str.220
  call void (ptr, ptr, ...) @appendPQExpBuffer(ptr noundef %19, ptr noundef @.str.218, ptr noundef %23)
  br label %30

24:                                               ; preds = %3
  %25 = load ptr, ptr %9, align 8
  call void @appendPQExpBufferStr(ptr noundef %25, ptr noundef @.str.217)
  %26 = load ptr, ptr %9, align 8
  %27 = load ptr, ptr %6, align 8
  %28 = load ptr, ptr @pset, align 8
  call void @appendStringLiteralConn(ptr noundef %26, ptr noundef %27, ptr noundef %28)
  %29 = load ptr, ptr %9, align 8
  call void @appendPQExpBufferStr(ptr noundef %29, ptr noundef @.str.221)
  br label %30

30:                                               ; preds = %3, %24, %14
  %31 = load ptr, ptr %9, align 8
  %32 = getelementptr inbounds nuw %struct.PQExpBufferData, ptr %31, i32 0, i32 0
  %33 = load ptr, ptr %32, align 8
  %34 = call zeroext i1 @echo_hidden_command(ptr noundef %33)
  br i1 %34, label %37, label %35

35:                                               ; preds = %30
  %36 = load ptr, ptr %9, align 8
  call void @destroyPQExpBuffer(ptr noundef %36)
  store i1 false, ptr %4, align 1
  store i32 1, ptr %11, align 4
  br label %63

37:                                               ; preds = %30
  %38 = load ptr, ptr @pset, align 8
  %39 = load ptr, ptr %9, align 8
  %40 = getelementptr inbounds nuw %struct.PQExpBufferData, ptr %39, i32 0, i32 0
  %41 = load ptr, ptr %40, align 8
  %42 = call ptr @PQexec(ptr noundef %38, ptr noundef %41)
  store ptr %42, ptr %10, align 8
  %43 = load ptr, ptr %10, align 8
  %44 = call i32 @PQresultStatus(ptr noundef %43)
  %45 = icmp eq i32 %44, 2
  br i1 %45, label %46, label %56

46:                                               ; preds = %37
  %47 = load ptr, ptr %10, align 8
  %48 = call i32 @PQntuples(ptr noundef %47)
  %49 = icmp eq i32 %48, 1
  br i1 %49, label %50, label %56

50:                                               ; preds = %46
  %51 = load ptr, ptr %10, align 8
  %52 = call ptr @PQgetvalue(ptr noundef %51, i32 noundef 0, i32 noundef 0)
  %53 = call i64 @strtoul(ptr noundef %52, ptr noundef null, i32 noundef 10) #10
  %54 = trunc i64 %53 to i32
  %55 = load ptr, ptr %7, align 8
  store i32 %54, ptr %55, align 4
  br label %58

56:                                               ; preds = %46, %37
  %57 = load ptr, ptr %10, align 8
  call void @minimal_error_message(ptr noundef %57)
  store i8 0, ptr %8, align 1
  br label %58

58:                                               ; preds = %56, %50
  %59 = load ptr, ptr %10, align 8
  call void @PQclear(ptr noundef %59)
  %60 = load ptr, ptr %9, align 8
  call void @destroyPQExpBuffer(ptr noundef %60)
  %61 = load i8, ptr %8, align 1, !range !4, !noundef !5
  %62 = trunc i8 %61 to i1
  store i1 %62, ptr %4, align 1
  store i32 1, ptr %11, align 4
  br label %63

63:                                               ; preds = %58, %35
  call void @llvm.lifetime.end.p0(i64 8, ptr %10) #10
  call void @llvm.lifetime.end.p0(i64 8, ptr %9) #10
  call void @llvm.lifetime.end.p0(i64 1, ptr %8) #10
  %64 = load i1, ptr %4, align 1
  ret i1 %64
}