; Function Attrs: nounwind uwtable
define internal fastcc noundef zeroext i1 @lookup_object_oid(i32 noundef range(i32 0, 2) %0, ptr noundef nonnull %1, ptr noundef nonnull writeonly captures(none) %2) unnamed_addr #0 {
  %4 = tail call ptr @createPQExpBuffer() #16
  %trunc = trunc nuw i32 %0 to i1
  tail call void @appendPQExpBufferStr(ptr noundef %4, ptr noundef nonnull @.str.217) #16
  %5 = load ptr, ptr @pset, align 8
  tail call void @appendStringLiteralConn(ptr noundef %4, ptr noundef nonnull %1, ptr noundef %5) #16
  br i1 %trunc, label %9, label %6

6:                                                ; preds = %3
  %7 = tail call ptr @strchr(ptr noundef nonnull dereferenceable(1) %1, i32 noundef 40) #17
  %.not = icmp eq ptr %7, null
  %8 = select i1 %.not, ptr @.str.220, ptr @.str.219
  tail call void (ptr, ptr, ...) @appendPQExpBuffer(ptr noundef %4, ptr noundef nonnull @.str.218, ptr noundef nonnull %8) #16
  br label %10

9:                                                ; preds = %3
  tail call void @appendPQExpBufferStr(ptr noundef %4, ptr noundef nonnull @.str.221) #16
  br label %10

10:                                               ; preds = %9, %6
  %11 = load ptr, ptr %4, align 8
  %12 = load i32, ptr getelementptr inbounds nuw (i8, ptr @pset, i64 424), align 8
  %.not.i = icmp eq i32 %12, 0
  br i1 %.not.i, label %25, label %13

13:                                               ; preds = %10
  %14 = tail call i32 (ptr, ...) @pg_printf(ptr noundef nonnull @.str.222, ptr noundef %11) #16
  %15 = load ptr, ptr @stdout, align 8
  %16 = tail call i32 @fflush(ptr noundef %15)
  %17 = load ptr, ptr getelementptr inbounds nuw (i8, ptr @pset, i64 376), align 8
  %.not4.i = icmp eq ptr %17, null
  br i1 %.not4.i, label %22, label %18

18:                                               ; preds = %13
  %19 = tail call i32 (ptr, ptr, ...) @pg_fprintf(ptr noundef nonnull %17, ptr noundef nonnull @.str.222, ptr noundef %11) #16
  %20 = load ptr, ptr getelementptr inbounds nuw (i8, ptr @pset, i64 376), align 8
  %21 = tail call i32 @fflush(ptr noundef %20)
  br label %22

22:                                               ; preds = %18, %13
  %23 = load i32, ptr getelementptr inbounds nuw (i8, ptr @pset, i64 424), align 8
  %24 = icmp eq i32 %23, 2
  br i1 %24, label %echo_hidden_command.exit, label %._crit_edge

._crit_edge:                                      ; preds = %22
  %.pre = load ptr, ptr %4, align 8
  br label %25

25:                                               ; preds = %._crit_edge, %10
  %26 = phi ptr [ %.pre, %._crit_edge ], [ %11, %10 ]
  %27 = load ptr, ptr @pset, align 8
  %28 = tail call ptr @PQexec(ptr noundef %27, ptr noundef %26) #16
  %29 = tail call i32 @PQresultStatus(ptr noundef %28) #16
  %30 = icmp eq i32 %29, 2
  br i1 %30, label %31, label %38

31:                                               ; preds = %25
  %32 = tail call i32 @PQntuples(ptr noundef %28) #16
  %33 = icmp eq i32 %32, 1
  br i1 %33, label %34, label %38

34:                                               ; preds = %31
  %35 = tail call ptr @PQgetvalue(ptr noundef %28, i32 noundef 0, i32 noundef 0) #16
  %36 = tail call i64 @strtoul(ptr noundef captures(none) %35, ptr noundef null, i32 noundef 10) #16
  %37 = trunc i64 %36 to i32
  store i32 %37, ptr %2, align 4
  br label %39

38:                                               ; preds = %31, %25
  tail call fastcc void @minimal_error_message(ptr noundef %28)
  br label %39

39:                                               ; preds = %38, %34
  %.021 = phi i1 [ true, %34 ], [ false, %38 ]
  tail call void @PQclear(ptr noundef %28) #16
  br label %echo_hidden_command.exit

echo_hidden_command.exit:                         ; preds = %22, %39
  %.0 = phi i1 [ %.021, %39 ], [ false, %22 ]
  tail call void @destroyPQExpBuffer(ptr noundef nonnull %4) #16
  ret i1 %.0
}